; ModuleID = '5/482.c'
source_filename = "5/482.c"
target datalayout = "e-m:e-p270:32:32-p271:32:32-p272:64:64-i64:64-f80:128-n8:16:32:64-S128"
target triple = "x86_64-pc-linux-gnu"

@.str = private unnamed_addr constant [4 x i8] c"%lf\00", align 1
@.str.1 = private unnamed_addr constant [3 x i8] c"%s\00", align 1
@.str.2 = private unnamed_addr constant [6 x i8] c"error\00", align 1
@.str.3 = private unnamed_addr constant [4 x i8] c"yes\00", align 1
@.str.4 = private unnamed_addr constant [3 x i8] c"no\00", align 1

; Function Attrs: noinline nounwind uwtable
define dso_local i32 @main() #0 {
  %1 = alloca i32, align 4
  %2 = alloca double, align 8
  %3 = alloca i32, align 4
  %4 = alloca i32, align 4
  %5 = alloca i32, align 4
  %6 = alloca i32, align 4
  %7 = alloca [2 x [501 x i8]], align 16
  store i32 0, i32* %1, align 4
  store i32 0, i32* %4, align 4
  %8 = call i32 (i8*, ...) @__isoc99_scanf(i8* getelementptr inbounds ([4 x i8], [4 x i8]* @.str, i64 0, i64 0), double* %2)
  store i32 0, i32* %3, align 4
  br label %9

9:                                                ; preds = %18, %0
  %10 = load i32, i32* %3, align 4
  %11 = icmp slt i32 %10, 2
  br i1 %11, label %12, label %21

12:                                               ; preds = %9
  %13 = load i32, i32* %3, align 4
  %14 = sext i32 %13 to i64
  %15 = getelementptr inbounds [2 x [501 x i8]], [2 x [501 x i8]]* %7, i64 0, i64 %14
  %16 = getelementptr inbounds [501 x i8], [501 x i8]* %15, i64 0, i64 0
  %17 = call i32 (i8*, ...) @__isoc99_scanf(i8* getelementptr inbounds ([3 x i8], [3 x i8]* @.str.1, i64 0, i64 0), i8* %16)
  br label %18

18:                                               ; preds = %12
  %19 = load i32, i32* %3, align 4
  %20 = add nsw i32 %19, 1
  store i32 %20, i32* %3, align 4
  br label %9

21:                                               ; preds = %9
  %22 = getelementptr inbounds [2 x [501 x i8]], [2 x [501 x i8]]* %7, i64 0, i64 0
  %23 = getelementptr inbounds [501 x i8], [501 x i8]* %22, i64 0, i64 0
  %24 = call i64 @strlen(i8* %23) #3
  %25 = trunc i64 %24 to i32
  store i32 %25, i32* %5, align 4
  %26 = getelementptr inbounds [2 x [501 x i8]], [2 x [501 x i8]]* %7, i64 0, i64 1
  %27 = getelementptr inbounds [501 x i8], [501 x i8]* %26, i64 0, i64 0
  %28 = call i64 @strlen(i8* %27) #3
  %29 = trunc i64 %28 to i32
  store i32 %29, i32* %6, align 4
  %30 = load i32, i32* %5, align 4
  %31 = load i32, i32* %6, align 4
  %32 = icmp ne i32 %30, %31
  br i1 %32, label %33, label %35

33:                                               ; preds = %21
  %34 = call i32 (i8*, ...) @printf(i8* getelementptr inbounds ([6 x i8], [6 x i8]* @.str.2, i64 0, i64 0))
  store i32 0, i32* %1, align 4
  br label %149

35:                                               ; preds = %21
  store i32 0, i32* %3, align 4
  br label %36

36:                                               ; preds = %129, %35
  %37 = getelementptr inbounds [2 x [501 x i8]], [2 x [501 x i8]]* %7, i64 0, i64 0
  %38 = load i32, i32* %3, align 4
  %39 = sext i32 %38 to i64
  %40 = getelementptr inbounds [501 x i8], [501 x i8]* %37, i64 0, i64 %39
  %41 = load i8, i8* %40, align 1
  %42 = sext i8 %41 to i32
  %43 = icmp ne i32 %42, 0
  br i1 %43, label %44, label %132

44:                                               ; preds = %36
  %45 = getelementptr inbounds [2 x [501 x i8]], [2 x [501 x i8]]* %7, i64 0, i64 0
  %46 = load i32, i32* %3, align 4
  %47 = sext i32 %46 to i64
  %48 = getelementptr inbounds [501 x i8], [501 x i8]* %45, i64 0, i64 %47
  %49 = load i8, i8* %48, align 1
  %50 = sext i8 %49 to i32
  %51 = icmp ne i32 %50, 65
  br i1 %51, label %52, label %76

52:                                               ; preds = %44
  %53 = getelementptr inbounds [2 x [501 x i8]], [2 x [501 x i8]]* %7, i64 0, i64 0
  %54 = load i32, i32* %3, align 4
  %55 = sext i32 %54 to i64
  %56 = getelementptr inbounds [501 x i8], [501 x i8]* %53, i64 0, i64 %55
  %57 = load i8, i8* %56, align 1
  %58 = sext i8 %57 to i32
  %59 = icmp ne i32 %58, 84
  br i1 %59, label %60, label %76

60:                                               ; preds = %52
  %61 = getelementptr inbounds [2 x [501 x i8]], [2 x [501 x i8]]* %7, i64 0, i64 0
  %62 = load i32, i32* %3, align 4
  %63 = sext i32 %62 to i64
  %64 = getelementptr inbounds [501 x i8], [501 x i8]* %61, i64 0, i64 %63
  %65 = load i8, i8* %64, align 1
  %66 = sext i8 %65 to i32
  %67 = icmp ne i32 %66, 67
  br i1 %67, label %68, label %76

68:                                               ; preds = %60
  %69 = getelementptr inbounds [2 x [501 x i8]], [2 x [501 x i8]]* %7, i64 0, i64 0
  %70 = load i32, i32* %3, align 4
  %71 = sext i32 %70 to i64
  %72 = getelementptr inbounds [501 x i8], [501 x i8]* %69, i64 0, i64 %71
  %73 = load i8, i8* %72, align 1
  %74 = sext i8 %73 to i32
  %75 = icmp ne i32 %74, 71
  br i1 %75, label %108, label %76

76:                                               ; preds = %68, %60, %52, %44
  %77 = getelementptr inbounds [2 x [501 x i8]], [2 x [501 x i8]]* %7, i64 0, i64 1
  %78 = load i32, i32* %3, align 4
  %79 = sext i32 %78 to i64
  %80 = getelementptr inbounds [501 x i8], [501 x i8]* %77, i64 0, i64 %79
  %81 = load i8, i8* %80, align 1
  %82 = sext i8 %81 to i32
  %83 = icmp ne i32 %82, 65
  br i1 %83, label %84, label %110

84:                                               ; preds = %76
  %85 = getelementptr inbounds [2 x [501 x i8]], [2 x [501 x i8]]* %7, i64 0, i64 1
  %86 = load i32, i32* %3, align 4
  %87 = sext i32 %86 to i64
  %88 = getelementptr inbounds [501 x i8], [501 x i8]* %85, i64 0, i64 %87
  %89 = load i8, i8* %88, align 1
  %90 = sext i8 %89 to i32
  %91 = icmp ne i32 %90, 84
  br i1 %91, label %92, label %110

92:                                               ; preds = %84
  %93 = getelementptr inbounds [2 x [501 x i8]], [2 x [501 x i8]]* %7, i64 0, i64 1
  %94 = load i32, i32* %3, align 4
  %95 = sext i32 %94 to i64
  %96 = getelementptr inbounds [501 x i8], [501 x i8]* %93, i64 0, i64 %95
  %97 = load i8, i8* %96, align 1
  %98 = sext i8 %97 to i32
  %99 = icmp ne i32 %98, 67
  br i1 %99, label %100, label %110

100:                                              ; preds = %92
  %101 = getelementptr inbounds [2 x [501 x i8]], [2 x [501 x i8]]* %7, i64 0, i64 1
  %102 = load i32, i32* %3, align 4
  %103 = sext i32 %102 to i64
  %104 = getelementptr inbounds [501 x i8], [501 x i8]* %101, i64 0, i64 %103
  %105 = load i8, i8* %104, align 1
  %106 = sext i8 %105 to i32
  %107 = icmp ne i32 %106, 71
  br i1 %107, label %108, label %110

108:                                              ; preds = %100, %68
  %109 = call i32 (i8*, ...) @printf(i8* getelementptr inbounds ([6 x i8], [6 x i8]* @.str.2, i64 0, i64 0))
  store i32 0, i32* %1, align 4
  br label %149

110:                                              ; preds = %100, %92, %84, %76
  %111 = getelementptr inbounds [2 x [501 x i8]], [2 x [501 x i8]]* %7, i64 0, i64 0
  %112 = load i32, i32* %3, align 4
  %113 = sext i32 %112 to i64
  %114 = getelementptr inbounds [501 x i8], [501 x i8]* %111, i64 0, i64 %113
  %115 = load i8, i8* %114, align 1
  %116 = sext i8 %115 to i32
  %117 = getelementptr inbounds [2 x [501 x i8]], [2 x [501 x i8]]* %7, i64 0, i64 1
  %118 = load i32, i32* %3, align 4
  %119 = sext i32 %118 to i64
  %120 = getelementptr inbounds [501 x i8], [501 x i8]* %117, i64 0, i64 %119
  %121 = load i8, i8* %120, align 1
  %122 = sext i8 %121 to i32
  %123 = icmp eq i32 %116, %122
  br i1 %123, label %124, label %127

124:                                              ; preds = %110
  %125 = load i32, i32* %4, align 4
  %126 = add nsw i32 %125, 1
  store i32 %126, i32* %4, align 4
  br label %127

127:                                              ; preds = %124, %110
  br label %128

128:                                              ; preds = %127
  br label %129

129:                                              ; preds = %128
  %130 = load i32, i32* %3, align 4
  %131 = add nsw i32 %130, 1
  store i32 %131, i32* %3, align 4
  br label %36

132:                                              ; preds = %36
  br label %133

133:                                              ; preds = %132
  %134 = load i32, i32* %4, align 4
  %135 = sitofp i32 %134 to double
  %136 = fmul double 1.000000e+00, %135
  %137 = getelementptr inbounds [2 x [501 x i8]], [2 x [501 x i8]]* %7, i64 0, i64 0
  %138 = getelementptr inbounds [501 x i8], [501 x i8]* %137, i64 0, i64 0
  %139 = call i64 @strlen(i8* %138) #3
  %140 = uitofp i64 %139 to double
  %141 = fdiv double %136, %140
  %142 = load double, double* %2, align 8
  %143 = fcmp ogt double %141, %142
  br i1 %143, label %144, label %146

144:                                              ; preds = %133
  %145 = call i32 (i8*, ...) @printf(i8* getelementptr inbounds ([4 x i8], [4 x i8]* @.str.3, i64 0, i64 0))
  br label %148

146:                                              ; preds = %133
  %147 = call i32 (i8*, ...) @printf(i8* getelementptr inbounds ([3 x i8], [3 x i8]* @.str.4, i64 0, i64 0))
  br label %148

148:                                              ; preds = %146, %144
  store i32 0, i32* %1, align 4
  br label %149

149:                                              ; preds = %148, %108, %33
  %150 = load i32, i32* %1, align 4
  ret i32 %150
}

declare dso_local i32 @__isoc99_scanf(i8*, ...) #1

; Function Attrs: nounwind readonly
declare dso_local i64 @strlen(i8*) #2

declare dso_local i32 @printf(i8*, ...) #1


!llvm.module.flags = !{!0}
!llvm.ident = !{!1}

!0 = !{i32 1, !"wchar_size", i32 4}
!1 = !{!"clang version 10.0.0-4ubuntu1 "}
